target datalayout = "e-m:e-p270:32:32-p271:32:32-p272:64:64-i64:64-i128:128-f80:128-n8:16:32:64-S128"
target triple = "x86_64-pc-linux-gnu"

%struct.evp_rand_ctx_st = type { ptr, ptr, ptr, %struct.CRYPTO_REF_COUNT, ptr }
%struct.CRYPTO_REF_COUNT = type { i32 }
%struct.evp_rand_st = type { ptr, i32, ptr, ptr, %struct.CRYPTO_REF_COUNT, ptr, ptr, ptr, ptr, ptr, ptr, ptr, ptr, ptr, ptr, ptr, ptr, ptr, ptr, ptr, ptr, ptr, ptr, ptr, ptr }
%struct.ossl_param_st = type { ptr, i32, ptr, i64, i64 }

@.str.1 = private unnamed_addr constant [6 x i8] c"state\00", align 1

; Function Attrs: nounwind uwtable
define internal void @evp_rand_unlock(ptr noundef %0) #0 {
  %2 = alloca ptr, align 8
  store ptr %0, ptr %2, align 8, !tbaa !3
  %3 = load ptr, ptr %2, align 8, !tbaa !3
  %4 = getelementptr inbounds nuw %struct.evp_rand_ctx_st, ptr %3, i32 0, i32 0
  %5 = load ptr, ptr %4, align 8, !tbaa !8
  %6 = getelementptr inbounds nuw %struct.evp_rand_st, ptr %5, i32 0, i32 15
  %7 = load ptr, ptr %6, align 8, !tbaa !45
  %8 = icmp ne ptr %7, null
  br i1 %8, label %9, label %18

9:                                                ; preds = %1
  %10 = load ptr, ptr %2, align 8, !tbaa !3
  %11 = getelementptr inbounds nuw %struct.evp_rand_ctx_st, ptr %10, i32 0, i32 0
  %12 = load ptr, ptr %11, align 8, !tbaa !8
  %13 = getelementptr inbounds nuw %struct.evp_rand_st, ptr %12, i32 0, i32 15
  %14 = load ptr, ptr %13, align 8, !tbaa !45
  %15 = load ptr, ptr %2, align 8, !tbaa !3
  %16 = getelementptr inbounds nuw %struct.evp_rand_ctx_st, ptr %15, i32 0, i32 1
  %17 = load ptr, ptr %16, align 8, !tbaa !18
  call void %14(ptr noundef %17)
  br label %18

18:                                               ; preds = %9, %1
  ret void
}

; Function Attrs: nounwind uwtable
define internal i32 @evp_rand_get_ctx_params_locked(ptr noundef %0, ptr noundef %1) #0 {
  %3 = alloca ptr, align 8
  %4 = alloca ptr, align 8
  store ptr %0, ptr %3, align 8, !tbaa !3
  store ptr %1, ptr %4, align 8, !tbaa !59
  %5 = load ptr, ptr %3, align 8, !tbaa !3
  %6 = getelementptr inbounds nuw %struct.evp_rand_ctx_st, ptr %5, i32 0, i32 0
  %7 = load ptr, ptr %6, align 8, !tbaa !8
  %8 = getelementptr inbounds nuw %struct.evp_rand_st, ptr %7, i32 0, i32 20
  %9 = load ptr, ptr %8, align 8, !tbaa !50
  %10 = load ptr, ptr %3, align 8, !tbaa !3
  %11 = getelementptr inbounds nuw %struct.evp_rand_ctx_st, ptr %10, i32 0, i32 1
  %12 = load ptr, ptr %11, align 8, !tbaa !18
  %13 = load ptr, ptr %4, align 8, !tbaa !59
  %14 = call i32 %9(ptr noundef %12, ptr noundef %13)
  ret i32 %14
}

; Function Attrs: nounwind uwtable
define internal i32 @evp_rand_lock(ptr noundef %0) #0 {
  %2 = alloca i32, align 4
  %3 = alloca ptr, align 8
  store ptr %0, ptr %3, align 8, !tbaa !3
  %4 = load ptr, ptr %3, align 8, !tbaa !3
  %5 = getelementptr inbounds nuw %struct.evp_rand_ctx_st, ptr %4, i32 0, i32 0
  %6 = load ptr, ptr %5, align 8, !tbaa !8
  %7 = getelementptr inbounds nuw %struct.evp_rand_st, ptr %6, i32 0, i32 14
  %8 = load ptr, ptr %7, align 8, !tbaa !44
  %9 = icmp ne ptr %8, null
  br i1 %9, label %10, label %20

10:                                               ; preds = %1
  %11 = load ptr, ptr %3, align 8, !tbaa !3
  %12 = getelementptr inbounds nuw %struct.evp_rand_ctx_st, ptr %11, i32 0, i32 0
  %13 = load ptr, ptr %12, align 8, !tbaa !8
  %14 = getelementptr inbounds nuw %struct.evp_rand_st, ptr %13, i32 0, i32 14
  %15 = load ptr, ptr %14, align 8, !tbaa !44
  %16 = load ptr, ptr %3, align 8, !tbaa !3
  %17 = getelementptr inbounds nuw %struct.evp_rand_ctx_st, ptr %16, i32 0, i32 1
  %18 = load ptr, ptr %17, align 8, !tbaa !18
  %19 = call i32 %15(ptr noundef %18)
  store i32 %19, ptr %2, align 4
  br label %21

20:                                               ; preds = %1
  store i32 1, ptr %2, align 4
  br label %21

21:                                               ; preds = %20, %10
  %22 = load i32, ptr %2, align 4
  ret i32 %22
}

; Function Attrs: nounwind uwtable
define i32 @EVP_RAND_CTX_get_params(ptr noundef %0, ptr noundef %1) #0 {
  %3 = alloca i32, align 4
  %4 = alloca ptr, align 8
  %5 = alloca ptr, align 8
  %6 = alloca i32, align 4
  %7 = alloca i32, align 4
  store ptr %0, ptr %4, align 8, !tbaa !3
  store ptr %1, ptr %5, align 8, !tbaa !59
  call void @llvm.lifetime.start.p0(i64 4, ptr %6) #6
  %8 = load ptr, ptr %4, align 8, !tbaa !3
  %9 = call i32 @evp_rand_lock(ptr noundef %8)
  %10 = icmp ne i32 %9, 0
  br i1 %10, label %12, label %11

11:                                               ; preds = %2
  store i32 0, ptr %3, align 4
  store i32 1, ptr %7, align 4
  br label %18

12:                                               ; preds = %2
  %13 = load ptr, ptr %4, align 8, !tbaa !3
  %14 = load ptr, ptr %5, align 8, !tbaa !59
  %15 = call i32 @evp_rand_get_ctx_params_locked(ptr noundef %13, ptr noundef %14)
  store i32 %15, ptr %6, align 4, !tbaa !22
  %16 = load ptr, ptr %4, align 8, !tbaa !3
  call void @evp_rand_unlock(ptr noundef %16)
  %17 = load i32, ptr %6, align 4, !tbaa !22
  store i32 %17, ptr %3, align 4
  store i32 1, ptr %7, align 4
  br label %18

18:                                               ; preds = %12, %11
  call void @llvm.lifetime.end.p0(i64 4, ptr %6) #6
  %19 = load i32, ptr %3, align 4
  ret i32 %19
}

; Function Attrs: nounwind uwtable
define i32 @EVP_RAND_get_state(ptr noundef %0) #0 {
  %2 = alloca ptr, align 8
  %3 = alloca [2 x %struct.ossl_param_st], align 16
  %4 = alloca i32, align 4
  %5 = alloca %struct.ossl_param_st, align 8
  store ptr %0, ptr %2, align 8, !tbaa !3
  call void @llvm.lifetime.start.p0(i64 80, ptr %3) #6
  call void @llvm.memset.p0.i64(ptr align 16 %3, i8 0, i64 80, i1 false)
  call void @llvm.lifetime.start.p0(i64 4, ptr %4) #6
  %6 = getelementptr inbounds [2 x %struct.ossl_param_st], ptr %3, i64 0, i64 0
  call void @llvm.lifetime.start.p0(i64 40, ptr %5) #6
  call void @OSSL_PARAM_construct_int(ptr dead_on_unwind writable sret(%struct.ossl_param_st) align 8 %5, ptr noundef @.str.1, ptr noundef %4)
  call void @llvm.memcpy.p0.p0.i64(ptr align 16 %6, ptr align 8 %5, i64 40, i1 false), !tbaa.struct !67
  call void @llvm.lifetime.end.p0(i64 40, ptr %5) #6
  %7 = load ptr, ptr %2, align 8, !tbaa !3
  %8 = getelementptr inbounds [2 x %struct.ossl_param_st], ptr %3, i64 0, i64 0
  %9 = call i32 @EVP_RAND_CTX_get_params(ptr noundef %7, ptr noundef %8)
  %10 = icmp ne i32 %9, 0
  br i1 %10, label %12, label %11

11:                                               ; preds = %1
  store i32 2, ptr %4, align 4, !tbaa !22
  br label %12

12:                                               ; preds = %11, %1
  %13 = load i32, ptr %4, align 4, !tbaa !22
  call void @llvm.lifetime.end.p0(i64 4, ptr %4) #6
  call void @llvm.lifetime.end.p0(i64 80, ptr %3) #6
  ret i32 %13
}