; Function Attrs: nounwind uwtable
define i32 @EVP_RAND_get_state(ptr noundef readonly captures(none) %0) local_unnamed_addr #0 {
  %2 = alloca [2 x %struct.ossl_param_st], align 16
  %3 = alloca i32, align 4
  call void @llvm.lifetime.start.p0(i64 80, ptr nonnull %2) #8
  call void @llvm.lifetime.start.p0(i64 4, ptr nonnull %3) #8
  call void @OSSL_PARAM_construct_int(ptr dead_on_unwind nonnull writable sret(%struct.ossl_param_st) align 8 %2, ptr noundef nonnull @.str.1, ptr noundef nonnull %3) #8
  %4 = getelementptr inbounds nuw i8, ptr %2, i64 40
  call void @llvm.memset.p0.i64(ptr noundef nonnull align 8 dereferenceable(40) %4, i8 0, i64 40, i1 false)
  %5 = load ptr, ptr %0, align 8, !tbaa !3
  %6 = getelementptr inbounds nuw i8, ptr %5, i64 112
  %7 = load ptr, ptr %6, align 8, !tbaa !37
  %.not.i.i = icmp eq ptr %7, null
  br i1 %.not.i.i, label %evp_rand_lock.exit.thread.i, label %evp_rand_lock.exit.i

evp_rand_lock.exit.i:                             ; preds = %1
  %8 = getelementptr inbounds nuw i8, ptr %0, i64 8
  %9 = load ptr, ptr %8, align 8, !tbaa !17
  %10 = call i32 %7(ptr noundef %9) #8
  %.not.i = icmp eq i32 %10, 0
  br i1 %.not.i, label %EVP_RAND_CTX_get_params.exit.thread, label %evp_rand_lock.exit.evp_rand_lock.exit.thread_crit_edge.i

evp_rand_lock.exit.evp_rand_lock.exit.thread_crit_edge.i: ; preds = %evp_rand_lock.exit.i
  %.val.pre.i = load ptr, ptr %0, align 8, !tbaa !3
  br label %evp_rand_lock.exit.thread.i

evp_rand_lock.exit.thread.i:                      ; preds = %evp_rand_lock.exit.evp_rand_lock.exit.thread_crit_edge.i, %1
  %.val.i = phi ptr [ %.val.pre.i, %evp_rand_lock.exit.evp_rand_lock.exit.thread_crit_edge.i ], [ %5, %1 ]
  %11 = getelementptr i8, ptr %0, i64 8
  %.val5.i = load ptr, ptr %11, align 8, !tbaa !17
  %12 = getelementptr i8, ptr %.val.i, i64 160
  %.val.val.i = load ptr, ptr %12, align 8, !tbaa !43
  %13 = call i32 %.val.val.i(ptr noundef %.val5.i, ptr noundef nonnull %2) #8
  %14 = load ptr, ptr %0, align 8, !tbaa !3
  %15 = getelementptr inbounds nuw i8, ptr %14, i64 120
  %16 = load ptr, ptr %15, align 8, !tbaa !38
  %.not.i6.i = icmp eq ptr %16, null
  br i1 %.not.i6.i, label %EVP_RAND_CTX_get_params.exit, label %17

17:                                               ; preds = %evp_rand_lock.exit.thread.i
  %18 = load ptr, ptr %11, align 8, !tbaa !17
  call void %16(ptr noundef %18) #8
  br label %EVP_RAND_CTX_get_params.exit

EVP_RAND_CTX_get_params.exit:                     ; preds = %evp_rand_lock.exit.thread.i, %17
  %.not = icmp eq i32 %13, 0
  %.pre = load i32, ptr %3, align 4
  %spec.select = select i1 %.not, i32 2, i32 %.pre
  br label %EVP_RAND_CTX_get_params.exit.thread

EVP_RAND_CTX_get_params.exit.thread:              ; preds = %EVP_RAND_CTX_get_params.exit, %evp_rand_lock.exit.i
  %19 = phi i32 [ 2, %evp_rand_lock.exit.i ], [ %spec.select, %EVP_RAND_CTX_get_params.exit ]
  call void @llvm.lifetime.end.p0(i64 4, ptr nonnull %3) #8
  call void @llvm.lifetime.end.p0(i64 80, ptr nonnull %2) #8
  ret i32 %19
}